; ModuleID = '8/122.c'
source_filename = "8/122.c"
target datalayout = "e-m:e-p270:32:32-p271:32:32-p272:64:64-i64:64-f80:128-n8:16:32:64-S128"
target triple = "x86_64-pc-linux-gnu"

@.str = private unnamed_addr constant [6 x i8] c"%d %d\00", align 1
@.str.1 = private unnamed_addr constant [3 x i8] c"%d\00", align 1
@.str.2 = private unnamed_addr constant [2 x i8] c"\0A\00", align 1
@.str.3 = private unnamed_addr constant [4 x i8] c"%d \00", align 1

; Function Attrs: noinline nounwind uwtable
define dso_local void @main() #0 {
  %1 = alloca i32, align 4
  %2 = alloca i32, align 4
  %3 = alloca i32, align 4
  %4 = alloca i32, align 4
  %5 = alloca i32, align 4
  %6 = alloca [1000 x i32], align 16
  %7 = alloca [1000 x i32], align 16
  %8 = call i32 (i8*, ...) @__isoc99_scanf(i8* getelementptr inbounds ([6 x i8], [6 x i8]* @.str, i64 0, i64 0), i32* %1, i32* %2)
  store i32 0, i32* %3, align 4
  br label %9

9:                                                ; preds = %18, %0
  %10 = load i32, i32* %3, align 4
  %11 = load i32, i32* %1, align 4
  %12 = icmp slt i32 %10, %11
  br i1 %12, label %13, label %21

13:                                               ; preds = %9
  %14 = load i32, i32* %3, align 4
  %15 = sext i32 %14 to i64
  %16 = getelementptr inbounds [1000 x i32], [1000 x i32]* %6, i64 0, i64 %15
  %17 = call i32 (i8*, ...) @__isoc99_scanf(i8* getelementptr inbounds ([3 x i8], [3 x i8]* @.str.1, i64 0, i64 0), i32* %16)
  br label %18

18:                                               ; preds = %13
  %19 = load i32, i32* %3, align 4
  %20 = add nsw i32 %19, 1
  store i32 %20, i32* %3, align 4
  br label %9

21:                                               ; preds = %9
  %22 = call i32 (i8*, ...) @__isoc99_scanf(i8* getelementptr inbounds ([2 x i8], [2 x i8]* @.str.2, i64 0, i64 0))
  store i32 0, i32* %3, align 4
  br label %23

23:                                               ; preds = %32, %21
  %24 = load i32, i32* %3, align 4
  %25 = load i32, i32* %2, align 4
  %26 = icmp slt i32 %24, %25
  br i1 %26, label %27, label %35

27:                                               ; preds = %23
  %28 = load i32, i32* %3, align 4
  %29 = sext i32 %28 to i64
  %30 = getelementptr inbounds [1000 x i32], [1000 x i32]* %7, i64 0, i64 %29
  %31 = call i32 (i8*, ...) @__isoc99_scanf(i8* getelementptr inbounds ([3 x i8], [3 x i8]* @.str.1, i64 0, i64 0), i32* %30)
  br label %32

32:                                               ; preds = %27
  %33 = load i32, i32* %3, align 4
  %34 = add nsw i32 %33, 1
  store i32 %34, i32* %3, align 4
  br label %23

35:                                               ; preds = %23
  %36 = getelementptr inbounds [1000 x i32], [1000 x i32]* %6, i64 0, i64 0
  %37 = getelementptr inbounds [1000 x i32], [1000 x i32]* %7, i64 0, i64 0
  %38 = load i32, i32* %1, align 4
  %39 = load i32, i32* %2, align 4
  call void @line(i32* %36, i32* %37, i32 %38, i32 %39)
  ret void
}

declare dso_local i32 @__isoc99_scanf(i8*, ...) #1

; Function Attrs: noinline nounwind uwtable
define dso_local void @line(i32* %0, i32* %1, i32 %2, i32 %3) #0 {
  %5 = alloca i32*, align 8
  %6 = alloca i32*, align 8
  %7 = alloca i32, align 4
  %8 = alloca i32, align 4
  %9 = alloca i32, align 4
  %10 = alloca i32, align 4
  %11 = alloca i32, align 4
  store i32* %0, i32** %5, align 8
  store i32* %1, i32** %6, align 8
  store i32 %2, i32* %7, align 4
  store i32 %3, i32* %8, align 4
  store i32 0, i32* %10, align 4
  br label %12

12:                                               ; preds = %65, %4
  %13 = load i32, i32* %10, align 4
  %14 = load i32, i32* %7, align 4
  %15 = sub nsw i32 %14, 1
  %16 = icmp slt i32 %13, %15
  br i1 %16, label %17, label %68

17:                                               ; preds = %12
  store i32 0, i32* %9, align 4
  br label %18

18:                                               ; preds = %61, %17
  %19 = load i32, i32* %9, align 4
  %20 = load i32, i32* %7, align 4
  %21 = load i32, i32* %10, align 4
  %22 = sub nsw i32 %20, %21
  %23 = sub nsw i32 %22, 1
  %24 = icmp slt i32 %19, %23
  br i1 %24, label %25, label %64

25:                                               ; preds = %18
  %26 = load i32*, i32** %5, align 8
  %27 = load i32, i32* %9, align 4
  %28 = sext i32 %27 to i64
  %29 = getelementptr inbounds i32, i32* %26, i64 %28
  %30 = load i32, i32* %29, align 4
  %31 = load i32*, i32** %5, align 8
  %32 = load i32, i32* %9, align 4
  %33 = add nsw i32 %32, 1
  %34 = sext i32 %33 to i64
  %35 = getelementptr inbounds i32, i32* %31, i64 %34
  %36 = load i32, i32* %35, align 4
  %37 = icmp sge i32 %30, %36
  br i1 %37, label %38, label %60

38:                                               ; preds = %25
  %39 = load i32*, i32** %5, align 8
  %40 = load i32, i32* %9, align 4
  %41 = sext i32 %40 to i64
  %42 = getelementptr inbounds i32, i32* %39, i64 %41
  %43 = load i32, i32* %42, align 4
  store i32 %43, i32* %11, align 4
  %44 = load i32*, i32** %5, align 8
  %45 = load i32, i32* %9, align 4
  %46 = add nsw i32 %45, 1
  %47 = sext i32 %46 to i64
  %48 = getelementptr inbounds i32, i32* %44, i64 %47
  %49 = load i32, i32* %48, align 4
  %50 = load i32*, i32** %5, align 8
  %51 = load i32, i32* %9, align 4
  %52 = sext i32 %51 to i64
  %53 = getelementptr inbounds i32, i32* %50, i64 %52
  store i32 %49, i32* %53, align 4
  %54 = load i32, i32* %11, align 4
  %55 = load i32*, i32** %5, align 8
  %56 = load i32, i32* %9, align 4
  %57 = add nsw i32 %56, 1
  %58 = sext i32 %57 to i64
  %59 = getelementptr inbounds i32, i32* %55, i64 %58
  store i32 %54, i32* %59, align 4
  br label %60

60:                                               ; preds = %38, %25
  br label %61

61:                                               ; preds = %60
  %62 = load i32, i32* %9, align 4
  %63 = add nsw i32 %62, 1
  store i32 %63, i32* %9, align 4
  br label %18

64:                                               ; preds = %18
  br label %65

65:                                               ; preds = %64
  %66 = load i32, i32* %10, align 4
  %67 = add nsw i32 %66, 1
  store i32 %67, i32* %10, align 4
  br label %12

68:                                               ; preds = %12
  store i32 0, i32* %10, align 4
  br label %69

69:                                               ; preds = %122, %68
  %70 = load i32, i32* %10, align 4
  %71 = load i32, i32* %8, align 4
  %72 = sub nsw i32 %71, 1
  %73 = icmp slt i32 %70, %72
  br i1 %73, label %74, label %125

74:                                               ; preds = %69
  store i32 0, i32* %9, align 4
  br label %75

75:                                               ; preds = %118, %74
  %76 = load i32, i32* %9, align 4
  %77 = load i32, i32* %8, align 4
  %78 = load i32, i32* %10, align 4
  %79 = sub nsw i32 %77, %78
  %80 = sub nsw i32 %79, 1
  %81 = icmp slt i32 %76, %80
  br i1 %81, label %82, label %121

82:                                               ; preds = %75
  %83 = load i32*, i32** %6, align 8
  %84 = load i32, i32* %9, align 4
  %85 = sext i32 %84 to i64
  %86 = getelementptr inbounds i32, i32* %83, i64 %85
  %87 = load i32, i32* %86, align 4
  %88 = load i32*, i32** %6, align 8
  %89 = load i32, i32* %9, align 4
  %90 = add nsw i32 %89, 1
  %91 = sext i32 %90 to i64
  %92 = getelementptr inbounds i32, i32* %88, i64 %91
  %93 = load i32, i32* %92, align 4
  %94 = icmp sge i32 %87, %93
  br i1 %94, label %95, label %117

95:                                               ; preds = %82
  %96 = load i32*, i32** %6, align 8
  %97 = load i32, i32* %9, align 4
  %98 = sext i32 %97 to i64
  %99 = getelementptr inbounds i32, i32* %96, i64 %98
  %100 = load i32, i32* %99, align 4
  store i32 %100, i32* %11, align 4
  %101 = load i32*, i32** %6, align 8
  %102 = load i32, i32* %9, align 4
  %103 = add nsw i32 %102, 1
  %104 = sext i32 %103 to i64
  %105 = getelementptr inbounds i32, i32* %101, i64 %104
  %106 = load i32, i32* %105, align 4
  %107 = load i32*, i32** %6, align 8
  %108 = load i32, i32* %9, align 4
  %109 = sext i32 %108 to i64
  %110 = getelementptr inbounds i32, i32* %107, i64 %109
  store i32 %106, i32* %110, align 4
  %111 = load i32, i32* %11, align 4
  %112 = load i32*, i32** %6, align 8
  %113 = load i32, i32* %9, align 4
  %114 = add nsw i32 %113, 1
  %115 = sext i32 %114 to i64
  %116 = getelementptr inbounds i32, i32* %112, i64 %115
  store i32 %111, i32* %116, align 4
  br label %117

117:                                              ; preds = %95, %82
  br label %118

118:                                              ; preds = %117
  %119 = load i32, i32* %9, align 4
  %120 = add nsw i32 %119, 1
  store i32 %120, i32* %9, align 4
  br label %75

121:                                              ; preds = %75
  br label %122

122:                                              ; preds = %121
  %123 = load i32, i32* %10, align 4
  %124 = add nsw i32 %123, 1
  store i32 %124, i32* %10, align 4
  br label %69

125:                                              ; preds = %69
  store i32 0, i32* %9, align 4
  br label %126

126:                                              ; preds = %137, %125
  %127 = load i32, i32* %9, align 4
  %128 = load i32, i32* %7, align 4
  %129 = icmp slt i32 %127, %128
  br i1 %129, label %130, label %140

130:                                              ; preds = %126
  %131 = load i32*, i32** %5, align 8
  %132 = load i32, i32* %9, align 4
  %133 = sext i32 %132 to i64
  %134 = getelementptr inbounds i32, i32* %131, i64 %133
  %135 = load i32, i32* %134, align 4
  %136 = call i32 (i8*, ...) @printf(i8* getelementptr inbounds ([4 x i8], [4 x i8]* @.str.3, i64 0, i64 0), i32 %135)
  br label %137

137:                                              ; preds = %130
  %138 = load i32, i32* %9, align 4
  %139 = add nsw i32 %138, 1
  store i32 %139, i32* %9, align 4
  br label %126

140:                                              ; preds = %126
  store i32 0, i32* %9, align 4
  br label %141

141:                                              ; preds = %153, %140
  %142 = load i32, i32* %9, align 4
  %143 = load i32, i32* %8, align 4
  %144 = sub nsw i32 %143, 1
  %145 = icmp slt i32 %142, %144
  br i1 %145, label %146, label %156

146:                                              ; preds = %141
  %147 = load i32*, i32** %6, align 8
  %148 = load i32, i32* %9, align 4
  %149 = sext i32 %148 to i64
  %150 = getelementptr inbounds i32, i32* %147, i64 %149
  %151 = load i32, i32* %150, align 4
  %152 = call i32 (i8*, ...) @printf(i8* getelementptr inbounds ([4 x i8], [4 x i8]* @.str.3, i64 0, i64 0), i32 %151)
  br label %153

153:                                              ; preds = %146
  %154 = load i32, i32* %9, align 4
  %155 = add nsw i32 %154, 1
  store i32 %155, i32* %9, align 4
  br label %141

156:                                              ; preds = %141
  %157 = load i32*, i32** %6, align 8
  %158 = load i32, i32* %8, align 4
  %159 = sub nsw i32 %158, 1
  %160 = sext i32 %159 to i64
  %161 = getelementptr inbounds i32, i32* %157, i64 %160
  %162 = load i32, i32* %161, align 4
  %163 = call i32 (i8*, ...) @printf(i8* getelementptr inbounds ([3 x i8], [3 x i8]* @.str.1, i64 0, i64 0), i32 %162)
  ret void
}

declare dso_local i32 @printf(i8*, ...) #1


!llvm.module.flags = !{!0}
!llvm.ident = !{!1}

!0 = !{i32 1, !"wchar_size", i32 4}
!1 = !{!"clang version 10.0.0-4ubuntu1 "}
